; Function Attrs: mustprogress uwtable
define void @_ZN6icu_7714MessagePattern7addPartE23UMessagePatternPartTypeiiiR10UErrorCode(ptr noundef nonnull align 8 captures(none) dereferenceable(127) %0, i32 noundef %1, i32 noundef %2, i32 noundef %3, i32 noundef %4, ptr noundef nonnull align 4 captures(none) dereferenceable(4) %5) local_unnamed_addr #2 align 2 {
  %7 = getelementptr inbounds nuw i8, ptr %0, i64 80
  %8 = load ptr, ptr %7, align 8, !tbaa !22
  %9 = getelementptr inbounds nuw i8, ptr %0, i64 96
  %10 = load i32, ptr %9, align 8, !tbaa !32
  %11 = load i32, ptr %5, align 4, !tbaa !20
  %12 = icmp slt i32 %11, 1
  br i1 %12, label %13, label %_ZN6icu_7718MessagePatternListINS_14MessagePattern4PartELi32EE24ensureCapacityForOneMoreEiR10UErrorCode.exit.thread

13:                                               ; preds = %6
  %14 = getelementptr inbounds nuw i8, ptr %8, i64 8
  %15 = load i32, ptr %14, align 8, !tbaa !25
  %16 = icmp sgt i32 %15, %10
  br i1 %16, label %_ZN6icu_7718MessagePatternListINS_14MessagePattern4PartELi32EE24ensureCapacityForOneMoreEiR10UErrorCode.exit, label %17

17:                                               ; preds = %13
  %18 = shl nsw i32 %10, 1
  %19 = icmp sgt i32 %10, 0
  br i1 %19, label %20, label %32

20:                                               ; preds = %17
  %21 = zext nneg i32 %18 to i64
  %22 = shl nuw nsw i64 %21, 4
  %23 = tail call noalias ptr @uprv_malloc_77(i64 noundef %22) #19
  %.not.i.i = icmp eq ptr %23, null
  br i1 %.not.i.i, label %32, label %24

24:                                               ; preds = %20
  %25 = load i32, ptr %14, align 8, !tbaa !25
  %spec.select.i.i = tail call i32 @llvm.smin.i32(i32 %10, i32 %25)
  %.1.i.i = tail call i32 @llvm.smin.i32(i32 %spec.select.i.i, i32 %18)
  %26 = load ptr, ptr %8, align 8, !tbaa !23
  %27 = sext i32 %.1.i.i to i64
  %28 = shl nsw i64 %27, 4
  tail call void @llvm.memcpy.p0.p0.i64(ptr nonnull align 4 %23, ptr align 4 %26, i64 %28, i1 false)
  %29 = getelementptr inbounds nuw i8, ptr %8, i64 12
  %30 = load i8, ptr %29, align 4, !tbaa !41
  %.not.i.i.i = icmp eq i8 %30, 0
  br i1 %.not.i.i.i, label %_ZN6icu_7715MaybeStackArrayINS_14MessagePattern4PartELi32EE6resizeEii.exit.i, label %31

31:                                               ; preds = %24
  tail call void @uprv_free_77(ptr noundef %26)
  br label %_ZN6icu_7715MaybeStackArrayINS_14MessagePattern4PartELi32EE6resizeEii.exit.i

_ZN6icu_7715MaybeStackArrayINS_14MessagePattern4PartELi32EE6resizeEii.exit.i: ; preds = %31, %24
  store ptr %23, ptr %8, align 8, !tbaa !23
  store i32 %18, ptr %14, align 8, !tbaa !25
  store i8 1, ptr %29, align 4, !tbaa !41
  %.pre = load ptr, ptr %7, align 8, !tbaa !22
  %.pre12 = load i32, ptr %9, align 8, !tbaa !32
  br label %_ZN6icu_7718MessagePatternListINS_14MessagePattern4PartELi32EE24ensureCapacityForOneMoreEiR10UErrorCode.exit

32:                                               ; preds = %20, %17
  store i32 7, ptr %5, align 4, !tbaa !20
  br label %_ZN6icu_7718MessagePatternListINS_14MessagePattern4PartELi32EE24ensureCapacityForOneMoreEiR10UErrorCode.exit.thread

_ZN6icu_7718MessagePatternListINS_14MessagePattern4PartELi32EE24ensureCapacityForOneMoreEiR10UErrorCode.exit: ; preds = %_ZN6icu_7715MaybeStackArrayINS_14MessagePattern4PartELi32EE6resizeEii.exit.i, %13
  %33 = phi i32 [ %.pre12, %_ZN6icu_7715MaybeStackArrayINS_14MessagePattern4PartELi32EE6resizeEii.exit.i ], [ %10, %13 ]
  %34 = phi ptr [ %.pre, %_ZN6icu_7715MaybeStackArrayINS_14MessagePattern4PartELi32EE6resizeEii.exit.i ], [ %8, %13 ]
  %35 = add nsw i32 %33, 1
  store i32 %35, ptr %9, align 8, !tbaa !32
  %36 = sext i32 %33 to i64
  %37 = load ptr, ptr %34, align 8, !tbaa !23
  %38 = getelementptr inbounds %"class.icu_77::MessagePattern::Part", ptr %37, i64 %36
  store i32 %1, ptr %38, align 4, !tbaa !44
  %39 = getelementptr inbounds nuw i8, ptr %38, i64 4
  store i32 %2, ptr %39, align 4, !tbaa !48
  %40 = trunc i32 %3 to i16
  %41 = getelementptr inbounds nuw i8, ptr %38, i64 8
  store i16 %40, ptr %41, align 4, !tbaa !49
  %42 = trunc i32 %4 to i16
  %43 = getelementptr inbounds nuw i8, ptr %38, i64 10
  store i16 %42, ptr %43, align 2, !tbaa !50
  %44 = getelementptr inbounds nuw i8, ptr %38, i64 12
  store i32 0, ptr %44, align 4, !tbaa !51
  br label %_ZN6icu_7718MessagePatternListINS_14MessagePattern4PartELi32EE24ensureCapacityForOneMoreEiR10UErrorCode.exit.thread

_ZN6icu_7718MessagePatternListINS_14MessagePattern4PartELi32EE24ensureCapacityForOneMoreEiR10UErrorCode.exit.thread: ; preds = %6, %32, %_ZN6icu_7718MessagePatternListINS_14MessagePattern4PartELi32EE24ensureCapacityForOneMoreEiR10UErrorCode.exit
  ret void
}